target datalayout = "e-m:e-p270:32:32-p271:32:32-p272:64:64-i64:64-i128:128-f80:128-n8:16:32:64-S128"
target triple = "x86_64-pc-linux-gnu"

; Function Attrs: inlinehint nounwind sspstrong willreturn memory(none) uwtable
define internal zeroext i1 @RB_TEST(i64 noundef %0) #6 {
  %2 = alloca i64, align 8
  store i64 %0, ptr %2, align 8, !tbaa !14
  %3 = load i64, ptr %2, align 8, !tbaa !14
  %4 = and i64 %3, -5
  %5 = icmp ne i64 %4, 0
  ret i1 %5
}

; Function Attrs: nounwind sspstrong uwtable
define internal i64 @find_i_fast(i64 noundef %0, i64 noundef %1, i32 noundef %2, ptr noundef %3, i64 noundef %4) #0 {
  %6 = alloca i64, align 8
  %7 = alloca i64, align 8
  %8 = alloca i32, align 4
  %9 = alloca ptr, align 8
  %10 = alloca i64, align 8
  store i64 %0, ptr %6, align 8, !tbaa !14
  store i64 %1, ptr %7, align 8, !tbaa !14
  store i32 %2, ptr %8, align 4, !tbaa !7
  store ptr %3, ptr %9, align 8, !tbaa !11
  store i64 %4, ptr %10, align 8, !tbaa !14
  %11 = load i32, ptr %8, align 4, !tbaa !7
  %12 = load ptr, ptr %9, align 8, !tbaa !11
  %13 = call i64 @rb_yield_values2(i32 noundef %11, ptr noundef %12)
  %14 = call zeroext i1 @RB_TEST(i64 noundef %13) #25
  br i1 %14, label %15, label %23

15:                                               ; preds = %5
  br label %16

16:                                               ; preds = %15
  %17 = load i32, ptr %8, align 4, !tbaa !7
  %18 = load ptr, ptr %9, align 8, !tbaa !11
  %19 = call i64 @rb_enum_values_pack(i32 noundef %17, ptr noundef %18)
  store i64 %19, ptr %6, align 8, !tbaa !14
  br label %20

20:                                               ; preds = %16
  %21 = load i64, ptr %6, align 8, !tbaa !14
  %22 = load i64, ptr %7, align 8, !tbaa !14
  call void @found(i64 noundef %21, i64 noundef %22) #23
  unreachable

23:                                               ; preds = %5
  ret i64 4
}