; Function Attrs: nounwind sspstrong uwtable
define internal noundef i64 @find_i_fast(i64 %0, i64 noundef %1, i32 noundef %2, ptr noundef %3, i64 %4) #0 {
  %6 = tail call i64 @rb_yield_values2(i32 noundef %2, ptr noundef %3) #14
  %7 = and i64 %6, -5
  %.not = icmp eq i64 %7, 0
  br i1 %.not, label %10, label %8

8:                                                ; preds = %5
  %9 = tail call i64 @rb_enum_values_pack(i32 noundef %2, ptr noundef %3)
  tail call fastcc void @found(i64 noundef %9, i64 noundef %1) #17
  unreachable

10:                                               ; preds = %5
  ret i64 4
}